; Function Attrs: nofree norecurse nosync nounwind memory(read, argmem: readwrite, inaccessiblemem: none) uwtable
define i32 @H5T__get_array_dims(ptr nocapture noundef readonly %0, ptr noundef writeonly %1) local_unnamed_addr #3 {
  %.not = icmp eq ptr %1, null
  %.phi.trans.insert = getelementptr inbounds i8, ptr %0, i64 40
  %.pre = load ptr, ptr %.phi.trans.insert, align 8
  %.phi.trans.insert12 = getelementptr inbounds i8, ptr %.pre, i64 56
  %.pre13 = load i32, ptr %.phi.trans.insert12, align 8
  br i1 %.not, label %.loopexit, label %.preheader

.preheader:                                       ; preds = %2
  %.not10 = icmp eq i32 %.pre13, 0
  br i1 %.not10, label %.loopexit, label %.lr.ph

.lr.ph:                                           ; preds = %.preheader, %.lr.ph
  %indvars.iv = phi i64 [ %indvars.iv.next, %.lr.ph ], [ 0, %.preheader ]
  %3 = phi ptr [ %8, %.lr.ph ], [ %.pre, %.preheader ]
  %4 = getelementptr inbounds i8, ptr %3, i64 64
  %5 = getelementptr inbounds [32 x i64], ptr %4, i64 0, i64 %indvars.iv
  %6 = load i64, ptr %5, align 8
  %7 = getelementptr inbounds i64, ptr %1, i64 %indvars.iv
  store i64 %6, ptr %7, align 8
  %indvars.iv.next = add nuw nsw i64 %indvars.iv, 1
  %8 = load ptr, ptr %.phi.trans.insert, align 8
  %9 = getelementptr inbounds i8, ptr %8, i64 56
  %10 = load i32, ptr %9, align 8
  %11 = zext i32 %10 to i64
  %12 = icmp ult i64 %indvars.iv.next, %11
  br i1 %12, label %.lr.ph, label %.loopexit

.loopexit:                                        ; preds = %.lr.ph, %2, %.preheader
  %13 = phi i32 [ 0, %.preheader ], [ %.pre13, %2 ], [ %10, %.lr.ph ]
  ret i32 %13
}